target datalayout = "e-m:e-p270:32:32-p271:32:32-p272:64:64-i64:64-i128:128-f80:128-n8:16:32:64-S128"
target triple = "x86_64-pc-linux-gnu"

%struct.AVFormatContext = type { ptr, ptr, ptr, ptr, ptr, i32, i32, ptr, i32, ptr, i32, ptr, ptr, i64, i64, i64, i32, i32, i32, i64, i64, ptr, i32, i32, ptr, i32, i32, i32, i32, ptr, i64, i32, i32, %struct.AVIOInterruptCB, i32, i32, i32, i32, i64, i32, i32, i32, i32, i32, i32, i32, i32, i32, i32, i32, i32, i64, i32, i32, i32, i32, i32, ptr, ptr, ptr, ptr, i32, ptr, ptr, ptr, ptr, i32, ptr, ptr, i64, ptr, ptr, ptr, i64 }
%struct.AVIOInterruptCB = type { ptr, ptr }
%struct.ogg = type { ptr, i32, i32, i32, i64, ptr }
%struct.ogg_stream = type { ptr, i32, i32, i32, i32, i32, i32, i32, i64, i64, i64, i64, i64, i64, i32, ptr, i32, i32, i32, [255 x i8], i32, i32, i32, i32, i32, i32, i32, i32, ptr, i64, ptr }

; Function Attrs: nounwind uwtable
define internal i64 @old_dirac_gptopts(ptr noundef %0, i32 noundef %1, i64 noundef %2, ptr noundef %3) #0 {
  %5 = alloca ptr, align 8
  %6 = alloca i32, align 4
  %7 = alloca i64, align 8
  %8 = alloca ptr, align 8
  %9 = alloca ptr, align 8
  %10 = alloca ptr, align 8
  %11 = alloca i64, align 8
  %12 = alloca i64, align 8
  store ptr %0, ptr %5, align 8, !tbaa !4
  store i32 %1, ptr %6, align 4, !tbaa !9
  store i64 %2, ptr %7, align 8, !tbaa !79
  store ptr %3, ptr %8, align 8, !tbaa !80
  call void @llvm.lifetime.start.p0(i64 8, ptr %9) #5
  %13 = load ptr, ptr %5, align 8, !tbaa !4
  %14 = getelementptr inbounds nuw %struct.AVFormatContext, ptr %13, i32 0, i32 3
  %15 = load ptr, ptr %14, align 8, !tbaa !11
  store ptr %15, ptr %9, align 8, !tbaa !27
  call void @llvm.lifetime.start.p0(i64 8, ptr %10) #5
  %16 = load ptr, ptr %9, align 8, !tbaa !27
  %17 = getelementptr inbounds nuw %struct.ogg, ptr %16, i32 0, i32 0
  %18 = load ptr, ptr %17, align 8, !tbaa !29
  %19 = load i32, ptr %6, align 4, !tbaa !9
  %20 = sext i32 %19 to i64
  %21 = getelementptr inbounds %struct.ogg_stream, ptr %18, i64 %20
  store ptr %21, ptr %10, align 8, !tbaa !33
  call void @llvm.lifetime.start.p0(i64 8, ptr %11) #5
  %22 = load i64, ptr %7, align 8, !tbaa !79
  %23 = lshr i64 %22, 30
  store i64 %23, ptr %11, align 8, !tbaa !79
  call void @llvm.lifetime.start.p0(i64 8, ptr %12) #5
  %24 = load i64, ptr %7, align 8, !tbaa !79
  %25 = and i64 %24, 1073741823
  store i64 %25, ptr %12, align 8, !tbaa !79
  %26 = load i64, ptr %12, align 8, !tbaa !79
  %27 = icmp ne i64 %26, 0
  br i1 %27, label %33, label %28

28:                                               ; preds = %4
  %29 = load ptr, ptr %10, align 8, !tbaa !33
  %30 = getelementptr inbounds nuw %struct.ogg_stream, ptr %29, i32 0, i32 5
  %31 = load i32, ptr %30, align 8, !tbaa !82
  %32 = or i32 %31, 1
  store i32 %32, ptr %30, align 8, !tbaa !82
  br label %33

33:                                               ; preds = %28, %4
  %34 = load i64, ptr %11, align 8, !tbaa !79
  %35 = load i64, ptr %12, align 8, !tbaa !79
  %36 = add i64 %34, %35
  call void @llvm.lifetime.end.p0(i64 8, ptr %12) #5
  call void @llvm.lifetime.end.p0(i64 8, ptr %11) #5
  call void @llvm.lifetime.end.p0(i64 8, ptr %10) #5
  call void @llvm.lifetime.end.p0(i64 8, ptr %9) #5
  ret i64 %36
}