; Function Attrs: mustprogress nofree norecurse nosync nounwind willreturn memory(readwrite, inaccessiblemem: none) uwtable
define internal range(i64 0, 18253611007) i64 @old_dirac_gptopts(ptr noundef readonly captures(none) %0, i32 noundef %1, i64 noundef %2, ptr readnone captures(none) %3) #1 {
  %5 = and i64 %2, 1073741823
  %.not = icmp eq i64 %5, 0
  br i1 %.not, label %6, label %14

6:                                                ; preds = %4
  %7 = getelementptr inbounds nuw i8, ptr %0, i64 24
  %8 = load ptr, ptr %7, align 8, !tbaa !4
  %9 = load ptr, ptr %8, align 8, !tbaa !24
  %10 = sext i32 %1 to i64
  %11 = getelementptr inbounds %struct.ogg_stream, ptr %9, i64 %10, i32 5
  %12 = load i32, ptr %11, align 8, !tbaa !72
  %13 = or i32 %12, 1
  store i32 %13, ptr %11, align 8, !tbaa !72
  br label %14

14:                                               ; preds = %6, %4
  %15 = lshr i64 %2, 30
  %16 = add nuw nsw i64 %15, %5
  ret i64 %16
}